target datalayout = "e-m:e-p270:32:32-p271:32:32-p272:64:64-i64:64-i128:128-f80:128-n8:16:32:64-S128"
target triple = "x86_64-pc-linux-gnu"

; Function Attrs: nounwind uwtable
define dso_local i32 @pg_wcswidth(ptr noundef %0, i64 noundef %1, i32 noundef %2) #0 {
  %4 = alloca ptr, align 8
  %5 = alloca i64, align 8
  %6 = alloca i32, align 4
  %7 = alloca i32, align 4
  %8 = alloca i32, align 4
  %9 = alloca i32, align 4
  %10 = alloca i32, align 4
  store ptr %0, ptr %4, align 8
  store i64 %1, ptr %5, align 8
  store i32 %2, ptr %6, align 4
  call void @llvm.lifetime.start.p0(i64 4, ptr %7) #5
  store i32 0, ptr %7, align 4
  br label %11

11:                                               ; preds = %44, %3
  %12 = load i64, ptr %5, align 8
  %13 = icmp ugt i64 %12, 0
  br i1 %13, label %14, label %45

14:                                               ; preds = %11
  call void @llvm.lifetime.start.p0(i64 4, ptr %8) #5
  call void @llvm.lifetime.start.p0(i64 4, ptr %9) #5
  %15 = load ptr, ptr %4, align 8
  %16 = load i32, ptr %6, align 4
  %17 = call i32 @PQmblen(ptr noundef %15, i32 noundef %16)
  store i32 %17, ptr %8, align 4
  %18 = load i64, ptr %5, align 8
  %19 = load i32, ptr %8, align 4
  %20 = sext i32 %19 to i64
  %21 = icmp ult i64 %18, %20
  br i1 %21, label %22, label %23

22:                                               ; preds = %14
  store i32 3, ptr %10, align 4
  br label %42

23:                                               ; preds = %14
  %24 = load ptr, ptr %4, align 8
  %25 = load i32, ptr %6, align 4
  %26 = call i32 @PQdsplen(ptr noundef %24, i32 noundef %25)
  store i32 %26, ptr %9, align 4
  %27 = load i32, ptr %9, align 4
  %28 = icmp sgt i32 %27, 0
  br i1 %28, label %29, label %33

29:                                               ; preds = %23
  %30 = load i32, ptr %9, align 4
  %31 = load i32, ptr %7, align 4
  %32 = add i32 %31, %30
  store i32 %32, ptr %7, align 4
  br label %33

33:                                               ; preds = %29, %23
  %34 = load i32, ptr %8, align 4
  %35 = load ptr, ptr %4, align 8
  %36 = sext i32 %34 to i64
  %37 = getelementptr inbounds i8, ptr %35, i64 %36
  store ptr %37, ptr %4, align 8
  %38 = load i32, ptr %8, align 4
  %39 = sext i32 %38 to i64
  %40 = load i64, ptr %5, align 8
  %41 = sub i64 %40, %39
  store i64 %41, ptr %5, align 8
  store i32 0, ptr %10, align 4
  br label %42

42:                                               ; preds = %33, %22
  call void @llvm.lifetime.end.p0(i64 4, ptr %9) #5
  call void @llvm.lifetime.end.p0(i64 4, ptr %8) #5
  %43 = load i32, ptr %10, align 4
  switch i32 %43, label %47 [
    i32 0, label %44
    i32 3, label %45
  ]

44:                                               ; preds = %42
  br label %11, !llvm.loop !4

45:                                               ; preds = %42, %11
  %46 = load i32, ptr %7, align 4
  store i32 1, ptr %10, align 4
  call void @llvm.lifetime.end.p0(i64 4, ptr %7) #5
  ret i32 %46

47:                                               ; preds = %42
  unreachable
}